(dp0
S'Fare'
p1
S'7.75'
p2
sS'Name'
p3
S'Dooley, Mr. Patrick'
p4
sS'Embarked'
p5
S'Q'
p6
sS'Age'
p7
S'32'
p8
sS'Parch'
p9
S'0'
p10
sS'Pclass'
p11
S'3'
p12
sS'Sex'
p13
S'male'
p14
sS'Survived'
p15
g10
sS'SibSp'
p16
g10
sS'PassengerId'
p17
S'891'
p18
sS'Ticket'
p19
S'370376'
p20
sS'Cabin'
p21
S''
p22
s.